; Function Attrs: nounwind uwtable
define hidden ptr @lexbor_array_obj_expand(ptr nocapture noundef %0, i64 noundef %1) local_unnamed_addr #0 {
  %3 = getelementptr inbounds i8, ptr %0, i64 16
  %4 = load i64, ptr %3, align 8
  %5 = xor i64 %1, -1
  %6 = icmp ugt i64 %4, %5
  br i1 %6, label %18, label %7

7:                                                ; preds = %2
  %8 = add i64 %4, %1
  %9 = load ptr, ptr %0, align 8
  %10 = getelementptr inbounds i8, ptr %0, i64 24
  %11 = load i64, ptr %10, align 8
  %12 = shl i64 %8, 3
  %13 = mul i64 %12, %11
  %14 = tail call ptr @lexbor_realloc(ptr noundef %9, i64 noundef %13) #8
  %15 = icmp eq ptr %14, null
  br i1 %15, label %18, label %16

16:                                               ; preds = %7
  store ptr %14, ptr %0, align 8
  %17 = getelementptr inbounds i8, ptr %0, i64 8
  store i64 %8, ptr %17, align 8
  br label %18

18:                                               ; preds = %7, %2, %16
  %.0 = phi ptr [ %14, %16 ], [ null, %2 ], [ null, %7 ]
  ret ptr %.0
}